target datalayout = "e-m:e-p270:32:32-p271:32:32-p272:64:64-i64:64-i128:128-f80:128-n8:16:32:64-S128"
target triple = "x86_64-pc-linux-gnu"

%struct.string_list = type { ptr, i64, i64, i8, ptr }
%struct.string_list_item = type { ptr, ptr }

@comment_line_str = external global ptr, align 8
@.str.46 = private unnamed_addr constant [3 x i8] c"By\00", align 1
@.str.47 = private unnamed_addr constant [4 x i8] c"Via\00", align 1
@.str.48 = private unnamed_addr constant [3 x i8] c" <\00", align 1
@.str.49 = private unnamed_addr constant [8 x i8] c"\0A%s %s \00", align 1
@.str.50 = private unnamed_addr constant [20 x i8] c"%s (%d) and %s (%d)\00", align 1
@.str.51 = private unnamed_addr constant [19 x i8] c"%s (%d) and others\00", align 1

; Function Attrs: inlinehint nounwind uwtable
define internal void @strbuf_addstr(ptr noundef %0, ptr noundef %1) #4 {
  %3 = alloca ptr, align 8
  %4 = alloca ptr, align 8
  store ptr %0, ptr %3, align 8, !tbaa !18
  store ptr %1, ptr %4, align 8, !tbaa !4
  %5 = load ptr, ptr %3, align 8, !tbaa !18
  %6 = load ptr, ptr %4, align 8, !tbaa !4
  %7 = load ptr, ptr %4, align 8, !tbaa !4
  %8 = call i64 @strlen(ptr noundef %7) #9
  call void @strbuf_add(ptr noundef %5, ptr noundef %6, i64 noundef %8)
  ret void
}

; Function Attrs: nounwind uwtable
define internal void @add_people_count(ptr noundef %0, ptr noundef %1) #0 {
  %3 = alloca ptr, align 8
  %4 = alloca ptr, align 8
  store ptr %0, ptr %3, align 8, !tbaa !18
  store ptr %1, ptr %4, align 8, !tbaa !160
  %5 = load ptr, ptr %4, align 8, !tbaa !160
  %6 = getelementptr inbounds nuw %struct.string_list, ptr %5, i32 0, i32 1
  %7 = load i64, ptr %6, align 8, !tbaa !32
  %8 = icmp eq i64 %7, 1
  br i1 %8, label %9, label %17

9:                                                ; preds = %2
  %10 = load ptr, ptr %3, align 8, !tbaa !18
  %11 = load ptr, ptr %4, align 8, !tbaa !160
  %12 = getelementptr inbounds nuw %struct.string_list, ptr %11, i32 0, i32 0
  %13 = load ptr, ptr %12, align 8, !tbaa !82
  %14 = getelementptr inbounds %struct.string_list_item, ptr %13, i64 0
  %15 = getelementptr inbounds nuw %struct.string_list_item, ptr %14, i32 0, i32 0
  %16 = load ptr, ptr %15, align 8, !tbaa !83
  call void @strbuf_addstr(ptr noundef %10, ptr noundef %16)
  br label %75

17:                                               ; preds = %2
  %18 = load ptr, ptr %4, align 8, !tbaa !160
  %19 = getelementptr inbounds nuw %struct.string_list, ptr %18, i32 0, i32 1
  %20 = load i64, ptr %19, align 8, !tbaa !32
  %21 = icmp eq i64 %20, 2
  br i1 %21, label %22, label %52

22:                                               ; preds = %17
  %23 = load ptr, ptr %3, align 8, !tbaa !18
  %24 = load ptr, ptr %4, align 8, !tbaa !160
  %25 = getelementptr inbounds nuw %struct.string_list, ptr %24, i32 0, i32 0
  %26 = load ptr, ptr %25, align 8, !tbaa !82
  %27 = getelementptr inbounds %struct.string_list_item, ptr %26, i64 0
  %28 = getelementptr inbounds nuw %struct.string_list_item, ptr %27, i32 0, i32 0
  %29 = load ptr, ptr %28, align 8, !tbaa !83
  %30 = load ptr, ptr %4, align 8, !tbaa !160
  %31 = getelementptr inbounds nuw %struct.string_list, ptr %30, i32 0, i32 0
  %32 = load ptr, ptr %31, align 8, !tbaa !82
  %33 = getelementptr inbounds %struct.string_list_item, ptr %32, i64 0
  %34 = getelementptr inbounds nuw %struct.string_list_item, ptr %33, i32 0, i32 1
  %35 = load ptr, ptr %34, align 8, !tbaa !85
  %36 = ptrtoint ptr %35 to i64
  %37 = trunc i64 %36 to i32
  %38 = load ptr, ptr %4, align 8, !tbaa !160
  %39 = getelementptr inbounds nuw %struct.string_list, ptr %38, i32 0, i32 0
  %40 = load ptr, ptr %39, align 8, !tbaa !82
  %41 = getelementptr inbounds %struct.string_list_item, ptr %40, i64 1
  %42 = getelementptr inbounds nuw %struct.string_list_item, ptr %41, i32 0, i32 0
  %43 = load ptr, ptr %42, align 8, !tbaa !83
  %44 = load ptr, ptr %4, align 8, !tbaa !160
  %45 = getelementptr inbounds nuw %struct.string_list, ptr %44, i32 0, i32 0
  %46 = load ptr, ptr %45, align 8, !tbaa !82
  %47 = getelementptr inbounds %struct.string_list_item, ptr %46, i64 1
  %48 = getelementptr inbounds nuw %struct.string_list_item, ptr %47, i32 0, i32 1
  %49 = load ptr, ptr %48, align 8, !tbaa !85
  %50 = ptrtoint ptr %49 to i64
  %51 = trunc i64 %50 to i32
  call void (ptr, ptr, ...) @strbuf_addf(ptr noundef %23, ptr noundef @.str.50, ptr noundef %29, i32 noundef %37, ptr noundef %43, i32 noundef %51)
  br label %74

52:                                               ; preds = %17
  %53 = load ptr, ptr %4, align 8, !tbaa !160
  %54 = getelementptr inbounds nuw %struct.string_list, ptr %53, i32 0, i32 1
  %55 = load i64, ptr %54, align 8, !tbaa !32
  %56 = icmp ne i64 %55, 0
  br i1 %56, label %57, label %73

57:                                               ; preds = %52
  %58 = load ptr, ptr %3, align 8, !tbaa !18
  %59 = load ptr, ptr %4, align 8, !tbaa !160
  %60 = getelementptr inbounds nuw %struct.string_list, ptr %59, i32 0, i32 0
  %61 = load ptr, ptr %60, align 8, !tbaa !82
  %62 = getelementptr inbounds %struct.string_list_item, ptr %61, i64 0
  %63 = getelementptr inbounds nuw %struct.string_list_item, ptr %62, i32 0, i32 0
  %64 = load ptr, ptr %63, align 8, !tbaa !83
  %65 = load ptr, ptr %4, align 8, !tbaa !160
  %66 = getelementptr inbounds nuw %struct.string_list, ptr %65, i32 0, i32 0
  %67 = load ptr, ptr %66, align 8, !tbaa !82
  %68 = getelementptr inbounds %struct.string_list_item, ptr %67, i64 0
  %69 = getelementptr inbounds nuw %struct.string_list_item, ptr %68, i32 0, i32 1
  %70 = load ptr, ptr %69, align 8, !tbaa !85
  %71 = ptrtoint ptr %70 to i64
  %72 = trunc i64 %71 to i32
  call void (ptr, ptr, ...) @strbuf_addf(ptr noundef %58, ptr noundef @.str.51, ptr noundef %64, i32 noundef %72)
  br label %73

73:                                               ; preds = %57, %52
  br label %74

74:                                               ; preds = %73, %22
  br label %75

75:                                               ; preds = %74, %9
  ret void
}

; Function Attrs: inlinehint nounwind uwtable
define internal zeroext i1 @skip_prefix(ptr noundef %0, ptr noundef %1, ptr noundef %2) #4 {
  %4 = alloca i1, align 1
  %5 = alloca ptr, align 8
  %6 = alloca ptr, align 8
  %7 = alloca ptr, align 8
  store ptr %0, ptr %5, align 8, !tbaa !4
  store ptr %1, ptr %6, align 8, !tbaa !4
  store ptr %2, ptr %7, align 8, !tbaa !158
  br label %8

8:                                                ; preds = %16, %3
  %9 = load ptr, ptr %6, align 8, !tbaa !4
  %10 = load i8, ptr %9, align 1, !tbaa !17
  %11 = icmp ne i8 %10, 0
  br i1 %11, label %15, label %12

12:                                               ; preds = %8
  %13 = load ptr, ptr %5, align 8, !tbaa !4
  %14 = load ptr, ptr %7, align 8, !tbaa !158
  store ptr %13, ptr %14, align 8, !tbaa !4
  store i1 true, ptr %4, align 1
  br label %27

15:                                               ; preds = %8
  br label %16

16:                                               ; preds = %15
  %17 = load ptr, ptr %5, align 8, !tbaa !4
  %18 = getelementptr inbounds nuw i8, ptr %17, i32 1
  store ptr %18, ptr %5, align 8, !tbaa !4
  %19 = load i8, ptr %17, align 1, !tbaa !17
  %20 = sext i8 %19 to i32
  %21 = load ptr, ptr %6, align 8, !tbaa !4
  %22 = getelementptr inbounds nuw i8, ptr %21, i32 1
  store ptr %22, ptr %6, align 8, !tbaa !4
  %23 = load i8, ptr %21, align 1, !tbaa !17
  %24 = sext i8 %23 to i32
  %25 = icmp eq i32 %20, %24
  br i1 %25, label %8, label %26, !llvm.loop !159

26:                                               ; preds = %16
  store i1 false, ptr %4, align 1
  br label %27

27:                                               ; preds = %26, %12
  %28 = load i1, ptr %4, align 1
  ret i1 %28
}

; Function Attrs: nounwind uwtable
define internal void @credit_people(ptr noundef %0, ptr noundef %1, i32 noundef %2) #0 {
  %4 = alloca ptr, align 8
  %5 = alloca ptr, align 8
  %6 = alloca i32, align 4
  %7 = alloca ptr, align 8
  %8 = alloca ptr, align 8
  %9 = alloca i32, align 4
  store ptr %0, ptr %4, align 8, !tbaa !18
  store ptr %1, ptr %5, align 8, !tbaa !160
  store i32 %2, ptr %6, align 4, !tbaa !15
  call void @llvm.lifetime.start.p0(i64 8, ptr %7) #10
  call void @llvm.lifetime.start.p0(i64 8, ptr %8) #10
  %10 = load i32, ptr %6, align 4, !tbaa !15
  %11 = icmp eq i32 %10, 97
  br i1 %11, label %12, label %14

12:                                               ; preds = %3
  store ptr @.str.46, ptr %7, align 8, !tbaa !4
  %13 = call ptr @git_author_info(i32 noundef 2)
  store ptr %13, ptr %8, align 8, !tbaa !4
  br label %16

14:                                               ; preds = %3
  store ptr @.str.47, ptr %7, align 8, !tbaa !4
  %15 = call ptr @git_committer_info(i32 noundef 2)
  store ptr %15, ptr %8, align 8, !tbaa !4
  br label %16

16:                                               ; preds = %14, %12
  %17 = load ptr, ptr %5, align 8, !tbaa !160
  %18 = getelementptr inbounds nuw %struct.string_list, ptr %17, i32 0, i32 1
  %19 = load i64, ptr %18, align 8, !tbaa !32
  %20 = icmp ne i64 %19, 0
  br i1 %20, label %21, label %41

21:                                               ; preds = %16
  %22 = load ptr, ptr %5, align 8, !tbaa !160
  %23 = getelementptr inbounds nuw %struct.string_list, ptr %22, i32 0, i32 1
  %24 = load i64, ptr %23, align 8, !tbaa !32
  %25 = icmp eq i64 %24, 1
  br i1 %25, label %26, label %42

26:                                               ; preds = %21
  %27 = load ptr, ptr %8, align 8, !tbaa !4
  %28 = icmp ne ptr %27, null
  br i1 %28, label %29, label %42

29:                                               ; preds = %26
  %30 = load ptr, ptr %8, align 8, !tbaa !4
  %31 = load ptr, ptr %5, align 8, !tbaa !160
  %32 = getelementptr inbounds nuw %struct.string_list, ptr %31, i32 0, i32 0
  %33 = load ptr, ptr %32, align 8, !tbaa !82
  %34 = getelementptr inbounds nuw %struct.string_list_item, ptr %33, i32 0, i32 0
  %35 = load ptr, ptr %34, align 8, !tbaa !83
  %36 = call zeroext i1 @skip_prefix(ptr noundef %30, ptr noundef %35, ptr noundef %8)
  br i1 %36, label %37, label %42

37:                                               ; preds = %29
  %38 = load ptr, ptr %8, align 8, !tbaa !4
  %39 = call i32 @starts_with(ptr noundef %38, ptr noundef @.str.48)
  %40 = icmp ne i32 %39, 0
  br i1 %40, label %41, label %42

41:                                               ; preds = %37, %16
  store i32 1, ptr %9, align 4
  br label %48

42:                                               ; preds = %37, %29, %26, %21
  %43 = load ptr, ptr %4, align 8, !tbaa !18
  %44 = load ptr, ptr @comment_line_str, align 8, !tbaa !4
  %45 = load ptr, ptr %7, align 8, !tbaa !4
  call void (ptr, ptr, ...) @strbuf_addf(ptr noundef %43, ptr noundef @.str.49, ptr noundef %44, ptr noundef %45)
  %46 = load ptr, ptr %4, align 8, !tbaa !18
  %47 = load ptr, ptr %5, align 8, !tbaa !160
  call void @add_people_count(ptr noundef %46, ptr noundef %47)
  store i32 0, ptr %9, align 4
  br label %48

48:                                               ; preds = %42, %41
  call void @llvm.lifetime.end.p0(i64 8, ptr %8) #10
  call void @llvm.lifetime.end.p0(i64 8, ptr %7) #10
  %49 = load i32, ptr %9, align 4
  switch i32 %49, label %51 [
    i32 0, label %50
    i32 1, label %50
  ]

50:                                               ; preds = %48, %48
  ret void

51:                                               ; preds = %48
  unreachable
}