; Function Attrs: nounwind uwtable
define internal fastcc void @credit_people(ptr noundef %0, ptr noundef nonnull readonly captures(none) %1, i32 noundef range(i32 97, 100) %2) unnamed_addr #0 {
  %4 = icmp eq i32 %2, 97
  br i1 %4, label %5, label %7

5:                                                ; preds = %3
  %6 = tail call ptr @git_author_info(i32 noundef 2) #13
  br label %9

7:                                                ; preds = %3
  %8 = tail call ptr @git_committer_info(i32 noundef 2) #13
  br label %9

9:                                                ; preds = %7, %5
  %storemerge = phi ptr [ %8, %7 ], [ %6, %5 ]
  %.0 = phi ptr [ @.str.47, %7 ], [ @.str.46, %5 ]
  %10 = getelementptr inbounds nuw i8, ptr %1, i64 8
  %11 = load i64, ptr %10, align 8, !tbaa !65
  %.not = icmp eq i64 %11, 0
  br i1 %.not, label %add_people_count.exit, label %12

12:                                               ; preds = %9
  %13 = icmp eq i64 %11, 1
  %14 = icmp ne ptr %storemerge, null
  %or.cond = select i1 %13, i1 %14, i1 false
  br i1 %or.cond, label %15, label %skip_prefix.exit

15:                                               ; preds = %12
  %16 = load ptr, ptr %1, align 8, !tbaa !66
  %17 = load ptr, ptr %16, align 8, !tbaa !67
  br label %18

18:                                               ; preds = %20, %15
  %.07.i = phi ptr [ %storemerge, %15 ], [ %21, %20 ]
  %.06.i = phi ptr [ %17, %15 ], [ %23, %20 ]
  %19 = load i8, ptr %.06.i, align 1, !tbaa !12
  %.not.i = icmp eq i8 %19, 0
  br i1 %.not.i, label %25, label %20

20:                                               ; preds = %18
  %21 = getelementptr inbounds nuw i8, ptr %.07.i, i64 1
  %22 = load i8, ptr %.07.i, align 1, !tbaa !12
  %23 = getelementptr inbounds nuw i8, ptr %.06.i, i64 1
  %24 = icmp eq i8 %22, %19
  br i1 %24, label %18, label %skip_prefix.exit, !llvm.loop !59

25:                                               ; preds = %18
  %26 = tail call i32 @starts_with(ptr noundef nonnull %.07.i, ptr noundef nonnull @.str.48) #13
  %.not10 = icmp eq i32 %26, 0
  br i1 %.not10, label %skip_prefix.exit, label %add_people_count.exit

skip_prefix.exit:                                 ; preds = %20, %25, %12
  %27 = load ptr, ptr @comment_line_str, align 8, !tbaa !26
  tail call void (ptr, ptr, ...) @strbuf_addf(ptr noundef %0, ptr noundef nonnull @.str.49, ptr noundef %27, ptr noundef nonnull %.0) #13
  %28 = load i64, ptr %10, align 8, !tbaa !65
  switch i64 %28, label %46 [
    i64 1, label %29
    i64 2, label %33
    i64 0, label %add_people_count.exit
  ]

29:                                               ; preds = %skip_prefix.exit
  %30 = load ptr, ptr %1, align 8, !tbaa !66
  %31 = load ptr, ptr %30, align 8, !tbaa !67
  %32 = tail call i64 @strlen(ptr noundef nonnull dereferenceable(1) %31) #12
  tail call void @strbuf_add(ptr noundef %0, ptr noundef nonnull %31, i64 noundef %32) #13
  br label %add_people_count.exit

33:                                               ; preds = %skip_prefix.exit
  %34 = load ptr, ptr %1, align 8, !tbaa !66
  %35 = load ptr, ptr %34, align 8, !tbaa !67
  %36 = getelementptr inbounds nuw i8, ptr %34, i64 8
  %37 = load ptr, ptr %36, align 8, !tbaa !57
  %38 = ptrtoint ptr %37 to i64
  %39 = trunc i64 %38 to i32
  %40 = getelementptr inbounds nuw i8, ptr %34, i64 16
  %41 = load ptr, ptr %40, align 8, !tbaa !67
  %42 = getelementptr inbounds nuw i8, ptr %34, i64 24
  %43 = load ptr, ptr %42, align 8, !tbaa !57
  %44 = ptrtoint ptr %43 to i64
  %45 = trunc i64 %44 to i32
  tail call void (ptr, ptr, ...) @strbuf_addf(ptr noundef %0, ptr noundef nonnull @.str.50, ptr noundef %35, i32 noundef %39, ptr noundef %41, i32 noundef %45) #13
  br label %add_people_count.exit

46:                                               ; preds = %skip_prefix.exit
  %47 = load ptr, ptr %1, align 8, !tbaa !66
  %48 = load ptr, ptr %47, align 8, !tbaa !67
  %49 = getelementptr inbounds nuw i8, ptr %47, i64 8
  %50 = load ptr, ptr %49, align 8, !tbaa !57
  %51 = ptrtoint ptr %50 to i64
  %52 = trunc i64 %51 to i32
  tail call void (ptr, ptr, ...) @strbuf_addf(ptr noundef %0, ptr noundef nonnull @.str.51, ptr noundef %48, i32 noundef %52) #13
  br label %add_people_count.exit

add_people_count.exit:                            ; preds = %46, %33, %29, %skip_prefix.exit, %9, %25
  ret void
}